target datalayout = "e-m:e-p270:32:32-p271:32:32-p272:64:64-i64:64-i128:128-f80:128-n8:16:32:64-S128"
target triple = "x86_64-pc-linux-gnu"

%struct.SDL_HIDAPI_DeviceDriver = type { ptr, i8, ptr, ptr, ptr, ptr, ptr, ptr, ptr, ptr, ptr, ptr, ptr, ptr, ptr, ptr, ptr, ptr, ptr }
%struct.SDL_AtomicInt = type { i32 }
%struct.SDL_HIDAPI_Device = type { ptr, ptr, ptr, ptr, i16, i16, i16, ptr, %struct.SDL_GUID, i32, i32, i32, i32, i16, i16, i8, i32, i32, i32, ptr, ptr, ptr, ptr, %struct.SDL_AtomicInt, i32, ptr, i8, i8, i8, ptr, i32, ptr, ptr }
%struct.SDL_GUID = type { [16 x i8] }

@SDL_HIDAPI_devices = internal global ptr null, align 8
@.str.20 = private unnamed_addr constant [5 x i8] c"NONE\00", align 1
@.str.21 = private unnamed_addr constant [8 x i8] c"ENABLED\00", align 1
@.str.22 = private unnamed_addr constant [9 x i8] c"DISABLED\00", align 1
@.str.24 = private unnamed_addr constant [230 x i8] c"Removing HIDAPI device '%s' VID 0x%.4x, PID 0x%.4x, bluetooth %d, version %d, serial %s, interface %d, interface_class %d, interface_subclass %d, interface_protocol %d, usage page 0x%.4x, usage 0x%.4x, path = %s, driver = %s (%s)\00", align 1

; Function Attrs: nounwind uwtable
define internal void @HIDAPI_DelDevice(ptr noundef %0) #0 {
  %2 = alloca ptr, align 8
  %3 = alloca ptr, align 8
  %4 = alloca ptr, align 8
  %5 = alloca i32, align 4
  %6 = alloca i32, align 4
  store ptr %0, ptr %2, align 8
  call void @llvm.lifetime.start.p0(i64 8, ptr %3) #7
  call void @llvm.lifetime.start.p0(i64 8, ptr %4) #7
  call void @llvm.lifetime.start.p0(i64 4, ptr %5) #7
  call void @SDL_AssertJoysticksLocked()
  %7 = load ptr, ptr %2, align 8
  %8 = getelementptr inbounds nuw %struct.SDL_HIDAPI_Device, ptr %7, i32 0, i32 0
  %9 = load ptr, ptr %8, align 8
  %10 = load ptr, ptr %2, align 8
  %11 = getelementptr inbounds nuw %struct.SDL_HIDAPI_Device, ptr %10, i32 0, i32 4
  %12 = load i16, ptr %11, align 8
  %13 = zext i16 %12 to i32
  %14 = load ptr, ptr %2, align 8
  %15 = getelementptr inbounds nuw %struct.SDL_HIDAPI_Device, ptr %14, i32 0, i32 5
  %16 = load i16, ptr %15, align 2
  %17 = zext i16 %16 to i32
  %18 = load ptr, ptr %2, align 8
  %19 = getelementptr inbounds nuw %struct.SDL_HIDAPI_Device, ptr %18, i32 0, i32 15
  %20 = load i8, ptr %19, align 4, !range !6, !noundef !7
  %21 = trunc i8 %20 to i1
  %22 = zext i1 %21 to i32
  %23 = load ptr, ptr %2, align 8
  %24 = getelementptr inbounds nuw %struct.SDL_HIDAPI_Device, ptr %23, i32 0, i32 6
  %25 = load i16, ptr %24, align 4
  %26 = zext i16 %25 to i32
  %27 = load ptr, ptr %2, align 8
  %28 = getelementptr inbounds nuw %struct.SDL_HIDAPI_Device, ptr %27, i32 0, i32 7
  %29 = load ptr, ptr %28, align 8
  %30 = icmp ne ptr %29, null
  br i1 %30, label %31, label %35

31:                                               ; preds = %1
  %32 = load ptr, ptr %2, align 8
  %33 = getelementptr inbounds nuw %struct.SDL_HIDAPI_Device, ptr %32, i32 0, i32 7
  %34 = load ptr, ptr %33, align 8
  br label %36

35:                                               ; preds = %1
  br label %36

36:                                               ; preds = %35, %31
  %37 = phi ptr [ %34, %31 ], [ @.str.20, %35 ]
  %38 = load ptr, ptr %2, align 8
  %39 = getelementptr inbounds nuw %struct.SDL_HIDAPI_Device, ptr %38, i32 0, i32 9
  %40 = load i32, ptr %39, align 8
  %41 = load ptr, ptr %2, align 8
  %42 = getelementptr inbounds nuw %struct.SDL_HIDAPI_Device, ptr %41, i32 0, i32 10
  %43 = load i32, ptr %42, align 4
  %44 = load ptr, ptr %2, align 8
  %45 = getelementptr inbounds nuw %struct.SDL_HIDAPI_Device, ptr %44, i32 0, i32 11
  %46 = load i32, ptr %45, align 8
  %47 = load ptr, ptr %2, align 8
  %48 = getelementptr inbounds nuw %struct.SDL_HIDAPI_Device, ptr %47, i32 0, i32 12
  %49 = load i32, ptr %48, align 4
  %50 = load ptr, ptr %2, align 8
  %51 = getelementptr inbounds nuw %struct.SDL_HIDAPI_Device, ptr %50, i32 0, i32 13
  %52 = load i16, ptr %51, align 8
  %53 = zext i16 %52 to i32
  %54 = load ptr, ptr %2, align 8
  %55 = getelementptr inbounds nuw %struct.SDL_HIDAPI_Device, ptr %54, i32 0, i32 14
  %56 = load i16, ptr %55, align 2
  %57 = zext i16 %56 to i32
  %58 = load ptr, ptr %2, align 8
  %59 = getelementptr inbounds nuw %struct.SDL_HIDAPI_Device, ptr %58, i32 0, i32 3
  %60 = load ptr, ptr %59, align 8
  %61 = load ptr, ptr %2, align 8
  %62 = getelementptr inbounds nuw %struct.SDL_HIDAPI_Device, ptr %61, i32 0, i32 19
  %63 = load ptr, ptr %62, align 8
  %64 = icmp ne ptr %63, null
  br i1 %64, label %65, label %71

65:                                               ; preds = %36
  %66 = load ptr, ptr %2, align 8
  %67 = getelementptr inbounds nuw %struct.SDL_HIDAPI_Device, ptr %66, i32 0, i32 19
  %68 = load ptr, ptr %67, align 8
  %69 = getelementptr inbounds nuw %struct.SDL_HIDAPI_DeviceDriver, ptr %68, i32 0, i32 0
  %70 = load ptr, ptr %69, align 8
  br label %72

71:                                               ; preds = %36
  br label %72

72:                                               ; preds = %71, %65
  %73 = phi ptr [ %70, %65 ], [ @.str.20, %71 ]
  %74 = load ptr, ptr %2, align 8
  %75 = getelementptr inbounds nuw %struct.SDL_HIDAPI_Device, ptr %74, i32 0, i32 19
  %76 = load ptr, ptr %75, align 8
  %77 = icmp ne ptr %76, null
  br i1 %77, label %78, label %85

78:                                               ; preds = %72
  %79 = load ptr, ptr %2, align 8
  %80 = getelementptr inbounds nuw %struct.SDL_HIDAPI_Device, ptr %79, i32 0, i32 19
  %81 = load ptr, ptr %80, align 8
  %82 = getelementptr inbounds nuw %struct.SDL_HIDAPI_DeviceDriver, ptr %81, i32 0, i32 1
  %83 = load i8, ptr %82, align 8, !range !6, !noundef !7
  %84 = trunc i8 %83 to i1
  br label %85

85:                                               ; preds = %78, %72
  %86 = phi i1 [ false, %72 ], [ %84, %78 ]
  %87 = select i1 %86, ptr @.str.21, ptr @.str.22
  call void (i32, ptr, ...) @SDL_LogDebug_REAL(i32 noundef 7, ptr noundef @.str.24, ptr noundef %9, i32 noundef %13, i32 noundef %17, i32 noundef %22, i32 noundef %26, ptr noundef %37, i32 noundef %40, i32 noundef %43, i32 noundef %46, i32 noundef %49, i32 noundef %53, i32 noundef %57, ptr noundef %60, ptr noundef %73, ptr noundef %87)
  %88 = load ptr, ptr @SDL_HIDAPI_devices, align 8
  store ptr %88, ptr %3, align 8
  store ptr null, ptr %4, align 8
  br label %89

89:                                               ; preds = %161, %85
  %90 = load ptr, ptr %3, align 8
  %91 = icmp ne ptr %90, null
  br i1 %91, label %92, label %166

92:                                               ; preds = %89
  %93 = load ptr, ptr %3, align 8
  %94 = load ptr, ptr %2, align 8
  %95 = icmp eq ptr %93, %94
  br i1 %95, label %96, label %160

96:                                               ; preds = %92
  %97 = load ptr, ptr %4, align 8
  %98 = icmp ne ptr %97, null
  br i1 %98, label %99, label %105

99:                                               ; preds = %96
  %100 = load ptr, ptr %3, align 8
  %101 = getelementptr inbounds nuw %struct.SDL_HIDAPI_Device, ptr %100, i32 0, i32 32
  %102 = load ptr, ptr %101, align 8
  %103 = load ptr, ptr %4, align 8
  %104 = getelementptr inbounds nuw %struct.SDL_HIDAPI_Device, ptr %103, i32 0, i32 32
  store ptr %102, ptr %104, align 8
  br label %109

105:                                              ; preds = %96
  %106 = load ptr, ptr %3, align 8
  %107 = getelementptr inbounds nuw %struct.SDL_HIDAPI_Device, ptr %106, i32 0, i32 32
  %108 = load ptr, ptr %107, align 8
  store ptr %108, ptr @SDL_HIDAPI_devices, align 8
  br label %109

109:                                              ; preds = %105, %99
  %110 = load ptr, ptr %2, align 8
  call void @HIDAPI_CleanupDeviceDriver(ptr noundef %110)
  br label %111

111:                                              ; preds = %116, %109
  %112 = load ptr, ptr %2, align 8
  %113 = getelementptr inbounds nuw %struct.SDL_HIDAPI_Device, ptr %112, i32 0, i32 23
  %114 = call i32 @SDL_GetAtomicInt_REAL(ptr noundef %113)
  %115 = icmp sgt i32 %114, 0
  br i1 %115, label %116, label %117

116:                                              ; preds = %111
  call void @SDL_Delay_REAL(i32 noundef 10)
  br label %111, !llvm.loop !43

117:                                              ; preds = %111
  store i32 0, ptr %5, align 4
  br label %118

118:                                              ; preds = %133, %117
  %119 = load i32, ptr %5, align 4
  %120 = load ptr, ptr %2, align 8
  %121 = getelementptr inbounds nuw %struct.SDL_HIDAPI_Device, ptr %120, i32 0, i32 30
  %122 = load i32, ptr %121, align 8
  %123 = icmp slt i32 %119, %122
  br i1 %123, label %124, label %136

124:                                              ; preds = %118
  %125 = load ptr, ptr %2, align 8
  %126 = getelementptr inbounds nuw %struct.SDL_HIDAPI_Device, ptr %125, i32 0, i32 31
  %127 = load ptr, ptr %126, align 8
  %128 = load i32, ptr %5, align 4
  %129 = sext i32 %128 to i64
  %130 = getelementptr inbounds ptr, ptr %127, i64 %129
  %131 = load ptr, ptr %130, align 8
  %132 = getelementptr inbounds nuw %struct.SDL_HIDAPI_Device, ptr %131, i32 0, i32 29
  store ptr null, ptr %132, align 8
  br label %133

133:                                              ; preds = %124
  %134 = load i32, ptr %5, align 4
  %135 = add nsw i32 %134, 1
  store i32 %135, ptr %5, align 4
  br label %118, !llvm.loop !44

136:                                              ; preds = %118
  %137 = load ptr, ptr %2, align 8
  call void @SDL_SetObjectValid(ptr noundef %137, i32 noundef 9, i1 noundef zeroext false)
  %138 = load ptr, ptr %2, align 8
  %139 = getelementptr inbounds nuw %struct.SDL_HIDAPI_Device, ptr %138, i32 0, i32 21
  %140 = load ptr, ptr %139, align 8
  call void @SDL_DestroyMutex_REAL(ptr noundef %140)
  %141 = load ptr, ptr %2, align 8
  %142 = getelementptr inbounds nuw %struct.SDL_HIDAPI_Device, ptr %141, i32 0, i32 1
  %143 = load ptr, ptr %142, align 8
  call void @SDL_free_REAL(ptr noundef %143)
  %144 = load ptr, ptr %2, align 8
  %145 = getelementptr inbounds nuw %struct.SDL_HIDAPI_Device, ptr %144, i32 0, i32 2
  %146 = load ptr, ptr %145, align 8
  call void @SDL_free_REAL(ptr noundef %146)
  %147 = load ptr, ptr %2, align 8
  %148 = getelementptr inbounds nuw %struct.SDL_HIDAPI_Device, ptr %147, i32 0, i32 7
  %149 = load ptr, ptr %148, align 8
  call void @SDL_free_REAL(ptr noundef %149)
  %150 = load ptr, ptr %2, align 8
  %151 = getelementptr inbounds nuw %struct.SDL_HIDAPI_Device, ptr %150, i32 0, i32 0
  %152 = load ptr, ptr %151, align 8
  call void @SDL_free_REAL(ptr noundef %152)
  %153 = load ptr, ptr %2, align 8
  %154 = getelementptr inbounds nuw %struct.SDL_HIDAPI_Device, ptr %153, i32 0, i32 3
  %155 = load ptr, ptr %154, align 8
  call void @SDL_free_REAL(ptr noundef %155)
  %156 = load ptr, ptr %2, align 8
  %157 = getelementptr inbounds nuw %struct.SDL_HIDAPI_Device, ptr %156, i32 0, i32 31
  %158 = load ptr, ptr %157, align 8
  call void @SDL_free_REAL(ptr noundef %158)
  %159 = load ptr, ptr %2, align 8
  call void @SDL_free_REAL(ptr noundef %159)
  store i32 1, ptr %6, align 4
  br label %167

160:                                              ; preds = %92
  br label %161

161:                                              ; preds = %160
  %162 = load ptr, ptr %3, align 8
  store ptr %162, ptr %4, align 8
  %163 = load ptr, ptr %3, align 8
  %164 = getelementptr inbounds nuw %struct.SDL_HIDAPI_Device, ptr %163, i32 0, i32 32
  %165 = load ptr, ptr %164, align 8
  store ptr %165, ptr %3, align 8
  br label %89, !llvm.loop !45

166:                                              ; preds = %89
  store i32 0, ptr %6, align 4
  br label %167

167:                                              ; preds = %166, %136
  call void @llvm.lifetime.end.p0(i64 4, ptr %5) #7
  call void @llvm.lifetime.end.p0(i64 8, ptr %4) #7
  call void @llvm.lifetime.end.p0(i64 8, ptr %3) #7
  %168 = load i32, ptr %6, align 4
  switch i32 %168, label %170 [
    i32 0, label %169
    i32 1, label %169
  ]

169:                                              ; preds = %167, %167
  ret void

170:                                              ; preds = %167
  unreachable
}