; Function Attrs: nounwind uwtable
define internal fastcc void @HIDAPI_DelDevice(ptr noundef %0) unnamed_addr #0 {
  tail call void @SDL_AssertJoysticksLocked() #9
  %2 = load ptr, ptr %0, align 8
  %3 = getelementptr inbounds nuw i8, ptr %0, i64 32
  %4 = load i16, ptr %3, align 8
  %5 = zext i16 %4 to i32
  %6 = getelementptr inbounds nuw i8, ptr %0, i64 34
  %7 = load i16, ptr %6, align 2
  %8 = zext i16 %7 to i32
  %9 = getelementptr inbounds nuw i8, ptr %0, i64 84
  %10 = load i8, ptr %9, align 4, !range !6, !noundef !7
  %11 = zext nneg i8 %10 to i32
  %12 = getelementptr inbounds nuw i8, ptr %0, i64 36
  %13 = load i16, ptr %12, align 4
  %14 = zext i16 %13 to i32
  %15 = getelementptr inbounds nuw i8, ptr %0, i64 40
  %16 = load ptr, ptr %15, align 8
  %.not = icmp eq ptr %16, null
  %spec.select = select i1 %.not, ptr @.str.20, ptr %16
  %17 = getelementptr inbounds nuw i8, ptr %0, i64 64
  %18 = load i32, ptr %17, align 8
  %19 = getelementptr inbounds nuw i8, ptr %0, i64 68
  %20 = load i32, ptr %19, align 4
  %21 = getelementptr inbounds nuw i8, ptr %0, i64 72
  %22 = load i32, ptr %21, align 8
  %23 = getelementptr inbounds nuw i8, ptr %0, i64 76
  %24 = load i32, ptr %23, align 4
  %25 = getelementptr inbounds nuw i8, ptr %0, i64 80
  %26 = load i16, ptr %25, align 8
  %27 = zext i16 %26 to i32
  %28 = getelementptr inbounds nuw i8, ptr %0, i64 82
  %29 = load i16, ptr %28, align 2
  %30 = zext i16 %29 to i32
  %31 = getelementptr inbounds nuw i8, ptr %0, i64 24
  %32 = load ptr, ptr %31, align 8
  %33 = getelementptr inbounds nuw i8, ptr %0, i64 104
  %34 = load ptr, ptr %33, align 8
  %.not48 = icmp eq ptr %34, null
  br i1 %.not48, label %.thread, label %35

35:                                               ; preds = %1
  %36 = load ptr, ptr %34, align 8
  %37 = getelementptr inbounds nuw i8, ptr %34, i64 8
  %38 = load i8, ptr %37, align 8, !range !6, !noundef !7
  %39 = trunc nuw i8 %38 to i1
  %40 = select i1 %39, ptr @.str.21, ptr @.str.22
  br label %.thread

.thread:                                          ; preds = %1, %35
  %41 = phi ptr [ %36, %35 ], [ @.str.20, %1 ]
  %42 = phi ptr [ %40, %35 ], [ @.str.22, %1 ]
  tail call void (i32, ptr, ...) @SDL_LogDebug_REAL(i32 noundef 7, ptr noundef nonnull @.str.24, ptr noundef %2, i32 noundef %5, i32 noundef %8, i32 noundef %11, i32 noundef %14, ptr noundef nonnull %spec.select, i32 noundef %18, i32 noundef %20, i32 noundef %22, i32 noundef %24, i32 noundef %27, i32 noundef %30, ptr noundef %32, ptr noundef %41, ptr noundef nonnull %42) #9
  %.04354 = load ptr, ptr @SDL_HIDAPI_devices, align 8
  %.not5055 = icmp eq ptr %.04354, null
  br i1 %.not5055, label %.loopexit, label %.lr.ph.preheader

.lr.ph.preheader:                                 ; preds = %.thread
  %43 = icmp eq ptr %.04354, %0
  br i1 %43, label %.lr.ph._crit_edge, label %.lr.ph69

.lr.ph:                                           ; preds = %.lr.ph69
  %44 = icmp eq ptr %.043, %0
  br i1 %44, label %.lr.ph._crit_edge, label %.lr.ph69, !llvm.loop !45

.lr.ph._crit_edge:                                ; preds = %.lr.ph, %.lr.ph.preheader
  %.04357.lcssa = phi ptr [ %.04354, %.lr.ph.preheader ], [ %.043, %.lr.ph ]
  %.04256.lcssa = phi ptr [ null, %.lr.ph.preheader ], [ %.0435768, %.lr.ph ]
  %.not51 = icmp eq ptr %.04256.lcssa, null
  %45 = getelementptr inbounds nuw i8, ptr %.04357.lcssa, i64 184
  %46 = load ptr, ptr %45, align 8
  br i1 %.not51, label %49, label %47

47:                                               ; preds = %.lr.ph._crit_edge
  %48 = getelementptr inbounds nuw i8, ptr %.04256.lcssa, i64 184
  store ptr %46, ptr %48, align 8
  br label %50

49:                                               ; preds = %.lr.ph._crit_edge
  store ptr %46, ptr @SDL_HIDAPI_devices, align 8
  br label %50

50:                                               ; preds = %49, %47
  tail call fastcc void @HIDAPI_CleanupDeviceDriver(ptr noundef %0)
  %51 = getelementptr inbounds nuw i8, ptr %0, i64 136
  %52 = tail call i32 @SDL_GetAtomicInt_REAL(ptr noundef nonnull %51) #9
  %53 = icmp sgt i32 %52, 0
  br i1 %53, label %.lr.ph58, label %.preheader

.preheader:                                       ; preds = %.lr.ph58, %50
  %54 = getelementptr inbounds nuw i8, ptr %0, i64 168
  %55 = load i32, ptr %54, align 8
  %56 = icmp sgt i32 %55, 0
  br i1 %56, label %.lr.ph60, label %._crit_edge

.lr.ph60:                                         ; preds = %.preheader
  %57 = getelementptr inbounds nuw i8, ptr %0, i64 176
  br label %60

.lr.ph58:                                         ; preds = %50, %.lr.ph58
  tail call void @SDL_Delay_REAL(i32 noundef 10) #9
  %58 = tail call i32 @SDL_GetAtomicInt_REAL(ptr noundef nonnull %51) #9
  %59 = icmp sgt i32 %58, 0
  br i1 %59, label %.lr.ph58, label %.preheader, !llvm.loop !46

60:                                               ; preds = %.lr.ph60, %60
  %indvars.iv = phi i64 [ 0, %.lr.ph60 ], [ %indvars.iv.next, %60 ]
  %61 = load ptr, ptr %57, align 8
  %62 = getelementptr inbounds nuw ptr, ptr %61, i64 %indvars.iv
  %63 = load ptr, ptr %62, align 8
  %64 = getelementptr inbounds nuw i8, ptr %63, i64 160
  store ptr null, ptr %64, align 8
  %indvars.iv.next = add nuw nsw i64 %indvars.iv, 1
  %65 = load i32, ptr %54, align 8
  %66 = sext i32 %65 to i64
  %67 = icmp slt i64 %indvars.iv.next, %66
  br i1 %67, label %60, label %._crit_edge, !llvm.loop !47

._crit_edge:                                      ; preds = %60, %.preheader
  tail call void @SDL_SetObjectValid(ptr noundef nonnull %0, i32 noundef 9, i1 noundef zeroext false) #9
  %68 = getelementptr inbounds nuw i8, ptr %0, i64 120
  %69 = load ptr, ptr %68, align 8
  tail call void @SDL_DestroyMutex_REAL(ptr noundef %69) #9
  %70 = getelementptr inbounds nuw i8, ptr %0, i64 8
  %71 = load ptr, ptr %70, align 8
  tail call void @SDL_free_REAL(ptr noundef %71) #9
  %72 = getelementptr inbounds nuw i8, ptr %0, i64 16
  %73 = load ptr, ptr %72, align 8
  tail call void @SDL_free_REAL(ptr noundef %73) #9
  %74 = load ptr, ptr %15, align 8
  tail call void @SDL_free_REAL(ptr noundef %74) #9
  %75 = load ptr, ptr %0, align 8
  tail call void @SDL_free_REAL(ptr noundef %75) #9
  %76 = load ptr, ptr %31, align 8
  tail call void @SDL_free_REAL(ptr noundef %76) #9
  %77 = getelementptr inbounds nuw i8, ptr %0, i64 176
  %78 = load ptr, ptr %77, align 8
  tail call void @SDL_free_REAL(ptr noundef %78) #9
  tail call void @SDL_free_REAL(ptr noundef nonnull %0) #9
  br label %.loopexit

.lr.ph69:                                         ; preds = %.lr.ph.preheader, %.lr.ph
  %.0435768 = phi ptr [ %.043, %.lr.ph ], [ %.04354, %.lr.ph.preheader ]
  %79 = getelementptr inbounds nuw i8, ptr %.0435768, i64 184
  %.043 = load ptr, ptr %79, align 8
  %.not50 = icmp eq ptr %.043, null
  br i1 %.not50, label %.loopexit, label %.lr.ph, !llvm.loop !45

.loopexit:                                        ; preds = %.lr.ph69, %.thread, %._crit_edge
  ret void
}